
mprj_stimulus.elf:     file format elf32-littleriscv


Disassembly of section .text:

10000000 <_ftext>:
10000000:	0b00006f          	j	100000b0 <crt_init>
10000004:	00000013          	nop
10000008:	00000013          	nop
1000000c:	00000013          	nop
10000010:	00000013          	nop
10000014:	00000013          	nop
10000018:	00000013          	nop
1000001c:	00000013          	nop

10000020 <trap_entry>:
10000020:	fe112e23          	sw	ra,-4(sp)
10000024:	fe512c23          	sw	t0,-8(sp)
10000028:	fe612a23          	sw	t1,-12(sp)
1000002c:	fe712823          	sw	t2,-16(sp)
10000030:	fea12623          	sw	a0,-20(sp)
10000034:	feb12423          	sw	a1,-24(sp)
10000038:	fec12223          	sw	a2,-28(sp)
1000003c:	fed12023          	sw	a3,-32(sp)
10000040:	fce12e23          	sw	a4,-36(sp)
10000044:	fcf12c23          	sw	a5,-40(sp)
10000048:	fd012a23          	sw	a6,-44(sp)
1000004c:	fd112823          	sw	a7,-48(sp)
10000050:	fdc12623          	sw	t3,-52(sp)
10000054:	fdd12423          	sw	t4,-56(sp)
10000058:	fde12223          	sw	t5,-60(sp)
1000005c:	fdf12023          	sw	t6,-64(sp)
10000060:	fc010113          	addi	sp,sp,-64
10000064:	110000ef          	jal	ra,10000174 <isr>
10000068:	03c12083          	lw	ra,60(sp)
1000006c:	03812283          	lw	t0,56(sp)
10000070:	03412303          	lw	t1,52(sp)
10000074:	03012383          	lw	t2,48(sp)
10000078:	02c12503          	lw	a0,44(sp)
1000007c:	02812583          	lw	a1,40(sp)
10000080:	02412603          	lw	a2,36(sp)
10000084:	02012683          	lw	a3,32(sp)
10000088:	01c12703          	lw	a4,28(sp)
1000008c:	01812783          	lw	a5,24(sp)
10000090:	01412803          	lw	a6,20(sp)
10000094:	01012883          	lw	a7,16(sp)
10000098:	00c12e03          	lw	t3,12(sp)
1000009c:	00812e83          	lw	t4,8(sp)
100000a0:	00412f03          	lw	t5,4(sp)
100000a4:	00012f83          	lw	t6,0(sp)
100000a8:	04010113          	addi	sp,sp,64
100000ac:	30200073          	mret

100000b0 <crt_init>:
100000b0:	60000113          	li	sp,1536
100000b4:	00000517          	auipc	a0,0x0
100000b8:	f6c50513          	addi	a0,a0,-148 # 10000020 <trap_entry>
100000bc:	30551073          	csrw	mtvec,a0

100000c0 <data_init>:
100000c0:	00000513          	li	a0,0
100000c4:	00000593          	li	a1,0
100000c8:	00000617          	auipc	a2,0x0
100000cc:	68060613          	addi	a2,a2,1664 # 10000748 <_etext>

100000d0 <data_loop>:
100000d0:	00b50c63          	beq	a0,a1,100000e8 <bss_init>
100000d4:	00062683          	lw	a3,0(a2)
100000d8:	00d52023          	sw	a3,0(a0)
100000dc:	00450513          	addi	a0,a0,4
100000e0:	00460613          	addi	a2,a2,4
100000e4:	fedff06f          	j	100000d0 <data_loop>

100000e8 <bss_init>:
100000e8:	00000513          	li	a0,0
100000ec:	00800593          	li	a1,8

100000f0 <bss_loop>:
100000f0:	00b50863          	beq	a0,a1,10000100 <bss_done>
100000f4:	00052023          	sw	zero,0(a0)
100000f8:	00450513          	addi	a0,a0,4
100000fc:	ff5ff06f          	j	100000f0 <bss_loop>

10000100 <bss_done>:
10000100:	00001537          	lui	a0,0x1
10000104:	88050513          	addi	a0,a0,-1920 # 880 <_fstack+0x280>
10000108:	30451073          	csrw	mie,a0
1000010c:	0f4000ef          	jal	ra,10000200 <main>

10000110 <infinit_loop>:
10000110:	0000006f          	j	10000110 <infinit_loop>

10000114 <flush_cpu_icache>:
10000114:	ff010113          	addi	sp,sp,-16
10000118:	00812623          	sw	s0,12(sp)
1000011c:	01010413          	addi	s0,sp,16
10000120:	00000013          	nop
10000124:	00c12403          	lw	s0,12(sp)
10000128:	01010113          	addi	sp,sp,16
1000012c:	00008067          	ret

10000130 <flush_cpu_dcache>:
10000130:	ff010113          	addi	sp,sp,-16
10000134:	00812623          	sw	s0,12(sp)
10000138:	01010413          	addi	s0,sp,16
1000013c:	00000013          	nop
10000140:	00c12403          	lw	s0,12(sp)
10000144:	01010113          	addi	sp,sp,16
10000148:	00008067          	ret

1000014c <irq_setmask>:
1000014c:	fe010113          	addi	sp,sp,-32
10000150:	00812e23          	sw	s0,28(sp)
10000154:	02010413          	addi	s0,sp,32
10000158:	fea42623          	sw	a0,-20(s0)
1000015c:	fec42783          	lw	a5,-20(s0)
10000160:	bc079073          	csrw	0xbc0,a5
10000164:	00000013          	nop
10000168:	01c12403          	lw	s0,28(sp)
1000016c:	02010113          	addi	sp,sp,32
10000170:	00008067          	ret

10000174 <isr>:
10000174:	ff010113          	addi	sp,sp,-16
10000178:	00112623          	sw	ra,12(sp)
1000017c:	00812423          	sw	s0,8(sp)
10000180:	01010413          	addi	s0,sp,16
10000184:	00000513          	li	a0,0
10000188:	fc5ff0ef          	jal	ra,1000014c <irq_setmask>
1000018c:	f00037b7          	lui	a5,0xf0003
10000190:	03878793          	addi	a5,a5,56 # f0003038 <_etext+0xe00028f0>
10000194:	00a00713          	li	a4,10
10000198:	00e7a023          	sw	a4,0(a5)
1000019c:	f00037b7          	lui	a5,0xf0003
100001a0:	03c78793          	addi	a5,a5,60 # f000303c <_etext+0xe00028f4>
100001a4:	00020737          	lui	a4,0x20
100001a8:	00e7a023          	sw	a4,0(a5)
100001ac:	00100713          	li	a4,1
100001b0:	00e01023          	sh	a4,0(zero) # 0 <flag>
100001b4:	00000013          	nop
100001b8:	00c12083          	lw	ra,12(sp)
100001bc:	00812403          	lw	s0,8(sp)
100001c0:	01010113          	addi	sp,sp,16
100001c4:	00008067          	ret

100001c8 <flush_cpu_icache>:
100001c8:	ff010113          	addi	sp,sp,-16
100001cc:	00812623          	sw	s0,12(sp)
100001d0:	01010413          	addi	s0,sp,16
100001d4:	00000013          	nop
100001d8:	00c12403          	lw	s0,12(sp)
100001dc:	01010113          	addi	sp,sp,16
100001e0:	00008067          	ret

100001e4 <flush_cpu_dcache>:
100001e4:	ff010113          	addi	sp,sp,-16
100001e8:	00812623          	sw	s0,12(sp)
100001ec:	01010413          	addi	s0,sp,16
100001f0:	00000013          	nop
100001f4:	00c12403          	lw	s0,12(sp)
100001f8:	01010113          	addi	sp,sp,16
100001fc:	00008067          	ret

10000200 <main>:
10000200:	fe010113          	addi	sp,sp,-32
10000204:	00812e23          	sw	s0,28(sp)
10000208:	02010413          	addi	s0,sp,32
1000020c:	260007b7          	lui	a5,0x26000
10000210:	00c78793          	addi	a5,a5,12 # 2600000c <_etext+0x15fff8c4>
10000214:	0007a023          	sw	zero,0(a5)
10000218:	260007b7          	lui	a5,0x26000
1000021c:	01078793          	addi	a5,a5,16 # 26000010 <_etext+0x15fff8c8>
10000220:	0007a023          	sw	zero,0(a5)
10000224:	260007b7          	lui	a5,0x26000
10000228:	0b878793          	addi	a5,a5,184 # 260000b8 <_etext+0x15fff970>
1000022c:	00002737          	lui	a4,0x2
10000230:	80970713          	addi	a4,a4,-2039 # 1809 <_fstack+0x1209>
10000234:	00e7a023          	sw	a4,0(a5)
10000238:	260007b7          	lui	a5,0x26000
1000023c:	0b478793          	addi	a5,a5,180 # 260000b4 <_etext+0x15fff96c>
10000240:	00002737          	lui	a4,0x2
10000244:	80970713          	addi	a4,a4,-2039 # 1809 <_fstack+0x1209>
10000248:	00e7a023          	sw	a4,0(a5)
1000024c:	260007b7          	lui	a5,0x26000
10000250:	0b078793          	addi	a5,a5,176 # 260000b0 <_etext+0x15fff968>
10000254:	00002737          	lui	a4,0x2
10000258:	80970713          	addi	a4,a4,-2039 # 1809 <_fstack+0x1209>
1000025c:	00e7a023          	sw	a4,0(a5)
10000260:	260007b7          	lui	a5,0x26000
10000264:	0ac78793          	addi	a5,a5,172 # 260000ac <_etext+0x15fff964>
10000268:	00002737          	lui	a4,0x2
1000026c:	80970713          	addi	a4,a4,-2039 # 1809 <_fstack+0x1209>
10000270:	00e7a023          	sw	a4,0(a5)
10000274:	260007b7          	lui	a5,0x26000
10000278:	0a878793          	addi	a5,a5,168 # 260000a8 <_etext+0x15fff960>
1000027c:	00002737          	lui	a4,0x2
10000280:	80970713          	addi	a4,a4,-2039 # 1809 <_fstack+0x1209>
10000284:	00e7a023          	sw	a4,0(a5)
10000288:	260007b7          	lui	a5,0x26000
1000028c:	0a478793          	addi	a5,a5,164 # 260000a4 <_etext+0x15fff95c>
10000290:	00002737          	lui	a4,0x2
10000294:	80970713          	addi	a4,a4,-2039 # 1809 <_fstack+0x1209>
10000298:	00e7a023          	sw	a4,0(a5)
1000029c:	260007b7          	lui	a5,0x26000
100002a0:	0a078793          	addi	a5,a5,160 # 260000a0 <_etext+0x15fff958>
100002a4:	00002737          	lui	a4,0x2
100002a8:	80970713          	addi	a4,a4,-2039 # 1809 <_fstack+0x1209>
100002ac:	00e7a023          	sw	a4,0(a5)
100002b0:	260007b7          	lui	a5,0x26000
100002b4:	09c78793          	addi	a5,a5,156 # 2600009c <_etext+0x15fff954>
100002b8:	00002737          	lui	a4,0x2
100002bc:	80970713          	addi	a4,a4,-2039 # 1809 <_fstack+0x1209>
100002c0:	00e7a023          	sw	a4,0(a5)
100002c4:	260007b7          	lui	a5,0x26000
100002c8:	09878793          	addi	a5,a5,152 # 26000098 <_etext+0x15fff950>
100002cc:	00002737          	lui	a4,0x2
100002d0:	80970713          	addi	a4,a4,-2039 # 1809 <_fstack+0x1209>
100002d4:	00e7a023          	sw	a4,0(a5)
100002d8:	260007b7          	lui	a5,0x26000
100002dc:	09478793          	addi	a5,a5,148 # 26000094 <_etext+0x15fff94c>
100002e0:	00002737          	lui	a4,0x2
100002e4:	80970713          	addi	a4,a4,-2039 # 1809 <_fstack+0x1209>
100002e8:	00e7a023          	sw	a4,0(a5)
100002ec:	260007b7          	lui	a5,0x26000
100002f0:	09078793          	addi	a5,a5,144 # 26000090 <_etext+0x15fff948>
100002f4:	00002737          	lui	a4,0x2
100002f8:	80970713          	addi	a4,a4,-2039 # 1809 <_fstack+0x1209>
100002fc:	00e7a023          	sw	a4,0(a5)
10000300:	260007b7          	lui	a5,0x26000
10000304:	08c78793          	addi	a5,a5,140 # 2600008c <_etext+0x15fff944>
10000308:	00002737          	lui	a4,0x2
1000030c:	80970713          	addi	a4,a4,-2039 # 1809 <_fstack+0x1209>
10000310:	00e7a023          	sw	a4,0(a5)
10000314:	260007b7          	lui	a5,0x26000
10000318:	08878793          	addi	a5,a5,136 # 26000088 <_etext+0x15fff940>
1000031c:	00002737          	lui	a4,0x2
10000320:	80970713          	addi	a4,a4,-2039 # 1809 <_fstack+0x1209>
10000324:	00e7a023          	sw	a4,0(a5)
10000328:	260007b7          	lui	a5,0x26000
1000032c:	08478793          	addi	a5,a5,132 # 26000084 <_etext+0x15fff93c>
10000330:	00002737          	lui	a4,0x2
10000334:	80970713          	addi	a4,a4,-2039 # 1809 <_fstack+0x1209>
10000338:	00e7a023          	sw	a4,0(a5)
1000033c:	260007b7          	lui	a5,0x26000
10000340:	08078793          	addi	a5,a5,128 # 26000080 <_etext+0x15fff938>
10000344:	00002737          	lui	a4,0x2
10000348:	80970713          	addi	a4,a4,-2039 # 1809 <_fstack+0x1209>
1000034c:	00e7a023          	sw	a4,0(a5)
10000350:	260007b7          	lui	a5,0x26000
10000354:	07c78793          	addi	a5,a5,124 # 2600007c <_etext+0x15fff934>
10000358:	00002737          	lui	a4,0x2
1000035c:	80970713          	addi	a4,a4,-2039 # 1809 <_fstack+0x1209>
10000360:	00e7a023          	sw	a4,0(a5)
10000364:	260007b7          	lui	a5,0x26000
10000368:	07878793          	addi	a5,a5,120 # 26000078 <_etext+0x15fff930>
1000036c:	00002737          	lui	a4,0x2
10000370:	80970713          	addi	a4,a4,-2039 # 1809 <_fstack+0x1209>
10000374:	00e7a023          	sw	a4,0(a5)
10000378:	260007b7          	lui	a5,0x26000
1000037c:	07478793          	addi	a5,a5,116 # 26000074 <_etext+0x15fff92c>
10000380:	00002737          	lui	a4,0x2
10000384:	80970713          	addi	a4,a4,-2039 # 1809 <_fstack+0x1209>
10000388:	00e7a023          	sw	a4,0(a5)
1000038c:	260007b7          	lui	a5,0x26000
10000390:	07078793          	addi	a5,a5,112 # 26000070 <_etext+0x15fff928>
10000394:	00002737          	lui	a4,0x2
10000398:	80970713          	addi	a4,a4,-2039 # 1809 <_fstack+0x1209>
1000039c:	00e7a023          	sw	a4,0(a5)
100003a0:	260007b7          	lui	a5,0x26000
100003a4:	06c78793          	addi	a5,a5,108 # 2600006c <_etext+0x15fff924>
100003a8:	00002737          	lui	a4,0x2
100003ac:	80970713          	addi	a4,a4,-2039 # 1809 <_fstack+0x1209>
100003b0:	00e7a023          	sw	a4,0(a5)
100003b4:	260007b7          	lui	a5,0x26000
100003b8:	06878793          	addi	a5,a5,104 # 26000068 <_etext+0x15fff920>
100003bc:	00002737          	lui	a4,0x2
100003c0:	80970713          	addi	a4,a4,-2039 # 1809 <_fstack+0x1209>
100003c4:	00e7a023          	sw	a4,0(a5)
100003c8:	260007b7          	lui	a5,0x26000
100003cc:	06478793          	addi	a5,a5,100 # 26000064 <_etext+0x15fff91c>
100003d0:	00002737          	lui	a4,0x2
100003d4:	80970713          	addi	a4,a4,-2039 # 1809 <_fstack+0x1209>
100003d8:	00e7a023          	sw	a4,0(a5)
100003dc:	260007b7          	lui	a5,0x26000
100003e0:	06078793          	addi	a5,a5,96 # 26000060 <_etext+0x15fff918>
100003e4:	00002737          	lui	a4,0x2
100003e8:	80270713          	addi	a4,a4,-2046 # 1802 <_fstack+0x1202>
100003ec:	00e7a023          	sw	a4,0(a5)
100003f0:	260007b7          	lui	a5,0x26000
100003f4:	05c78793          	addi	a5,a5,92 # 2600005c <_etext+0x15fff914>
100003f8:	00002737          	lui	a4,0x2
100003fc:	80270713          	addi	a4,a4,-2046 # 1802 <_fstack+0x1202>
10000400:	00e7a023          	sw	a4,0(a5)
10000404:	260007b7          	lui	a5,0x26000
10000408:	05878793          	addi	a5,a5,88 # 26000058 <_etext+0x15fff910>
1000040c:	00002737          	lui	a4,0x2
10000410:	80270713          	addi	a4,a4,-2046 # 1802 <_fstack+0x1202>
10000414:	00e7a023          	sw	a4,0(a5)
10000418:	260007b7          	lui	a5,0x26000
1000041c:	05478793          	addi	a5,a5,84 # 26000054 <_etext+0x15fff90c>
10000420:	00002737          	lui	a4,0x2
10000424:	80270713          	addi	a4,a4,-2046 # 1802 <_fstack+0x1202>
10000428:	00e7a023          	sw	a4,0(a5)
1000042c:	260007b7          	lui	a5,0x26000
10000430:	05078793          	addi	a5,a5,80 # 26000050 <_etext+0x15fff908>
10000434:	00002737          	lui	a4,0x2
10000438:	80270713          	addi	a4,a4,-2046 # 1802 <_fstack+0x1202>
1000043c:	00e7a023          	sw	a4,0(a5)
10000440:	260007b7          	lui	a5,0x26000
10000444:	04c78793          	addi	a5,a5,76 # 2600004c <_etext+0x15fff904>
10000448:	00002737          	lui	a4,0x2
1000044c:	80270713          	addi	a4,a4,-2046 # 1802 <_fstack+0x1202>
10000450:	00e7a023          	sw	a4,0(a5)
10000454:	260007b7          	lui	a5,0x26000
10000458:	04878793          	addi	a5,a5,72 # 26000048 <_etext+0x15fff900>
1000045c:	00002737          	lui	a4,0x2
10000460:	80270713          	addi	a4,a4,-2046 # 1802 <_fstack+0x1202>
10000464:	00e7a023          	sw	a4,0(a5)
10000468:	260007b7          	lui	a5,0x26000
1000046c:	04478793          	addi	a5,a5,68 # 26000044 <_etext+0x15fff8fc>
10000470:	00002737          	lui	a4,0x2
10000474:	80270713          	addi	a4,a4,-2046 # 1802 <_fstack+0x1202>
10000478:	00e7a023          	sw	a4,0(a5)
1000047c:	260007b7          	lui	a5,0x26000
10000480:	04078793          	addi	a5,a5,64 # 26000040 <_etext+0x15fff8f8>
10000484:	00002737          	lui	a4,0x2
10000488:	80270713          	addi	a4,a4,-2046 # 1802 <_fstack+0x1202>
1000048c:	00e7a023          	sw	a4,0(a5)
10000490:	260007b7          	lui	a5,0x26000
10000494:	03c78793          	addi	a5,a5,60 # 2600003c <_etext+0x15fff8f4>
10000498:	00002737          	lui	a4,0x2
1000049c:	80270713          	addi	a4,a4,-2046 # 1802 <_fstack+0x1202>
100004a0:	00e7a023          	sw	a4,0(a5)
100004a4:	260007b7          	lui	a5,0x26000
100004a8:	03878793          	addi	a5,a5,56 # 26000038 <_etext+0x15fff8f0>
100004ac:	00002737          	lui	a4,0x2
100004b0:	80270713          	addi	a4,a4,-2046 # 1802 <_fstack+0x1202>
100004b4:	00e7a023          	sw	a4,0(a5)
100004b8:	260007b7          	lui	a5,0x26000
100004bc:	03478793          	addi	a5,a5,52 # 26000034 <_etext+0x15fff8ec>
100004c0:	00002737          	lui	a4,0x2
100004c4:	80270713          	addi	a4,a4,-2046 # 1802 <_fstack+0x1202>
100004c8:	00e7a023          	sw	a4,0(a5)
100004cc:	260007b7          	lui	a5,0x26000
100004d0:	02c78793          	addi	a5,a5,44 # 2600002c <_etext+0x15fff8e4>
100004d4:	00002737          	lui	a4,0x2
100004d8:	80270713          	addi	a4,a4,-2046 # 1802 <_fstack+0x1202>
100004dc:	00e7a023          	sw	a4,0(a5)
100004e0:	260007b7          	lui	a5,0x26000
100004e4:	02878793          	addi	a5,a5,40 # 26000028 <_etext+0x15fff8e0>
100004e8:	00002737          	lui	a4,0x2
100004ec:	80270713          	addi	a4,a4,-2046 # 1802 <_fstack+0x1202>
100004f0:	00e7a023          	sw	a4,0(a5)
100004f4:	260007b7          	lui	a5,0x26000
100004f8:	02478793          	addi	a5,a5,36 # 26000024 <_etext+0x15fff8dc>
100004fc:	00002737          	lui	a4,0x2
10000500:	80270713          	addi	a4,a4,-2046 # 1802 <_fstack+0x1202>
10000504:	00e7a023          	sw	a4,0(a5)
10000508:	260007b7          	lui	a5,0x26000
1000050c:	00100713          	li	a4,1
10000510:	00e7a023          	sw	a4,0(a5) # 26000000 <_etext+0x15fff8b8>
10000514:	00000013          	nop
10000518:	260007b7          	lui	a5,0x26000
1000051c:	0007a703          	lw	a4,0(a5) # 26000000 <_etext+0x15fff8b8>
10000520:	00100793          	li	a5,1
10000524:	fef70ae3          	beq	a4,a5,10000518 <main+0x318>
10000528:	260007b7          	lui	a5,0x26000
1000052c:	0b078793          	addi	a5,a5,176 # 260000b0 <_etext+0x15fff968>
10000530:	00002737          	lui	a4,0x2
10000534:	80970713          	addi	a4,a4,-2039 # 1809 <_fstack+0x1209>
10000538:	00e7a023          	sw	a4,0(a5)
1000053c:	260007b7          	lui	a5,0x26000
10000540:	0ac78793          	addi	a5,a5,172 # 260000ac <_etext+0x15fff964>
10000544:	00002737          	lui	a4,0x2
10000548:	80970713          	addi	a4,a4,-2039 # 1809 <_fstack+0x1209>
1000054c:	00e7a023          	sw	a4,0(a5)
10000550:	260007b7          	lui	a5,0x26000
10000554:	0a878793          	addi	a5,a5,168 # 260000a8 <_etext+0x15fff960>
10000558:	00002737          	lui	a4,0x2
1000055c:	80970713          	addi	a4,a4,-2039 # 1809 <_fstack+0x1209>
10000560:	00e7a023          	sw	a4,0(a5)
10000564:	260007b7          	lui	a5,0x26000
10000568:	0a478793          	addi	a5,a5,164 # 260000a4 <_etext+0x15fff95c>
1000056c:	00002737          	lui	a4,0x2
10000570:	80970713          	addi	a4,a4,-2039 # 1809 <_fstack+0x1209>
10000574:	00e7a023          	sw	a4,0(a5)
10000578:	f00037b7          	lui	a5,0xf0003
1000057c:	00c78713          	addi	a4,a5,12 # f000300c <_etext+0xe00028c4>
10000580:	00000793          	li	a5,0
10000584:	00f72023          	sw	a5,0(a4)
10000588:	f0003737          	lui	a4,0xf0003
1000058c:	01c70713          	addi	a4,a4,28 # f000301c <_etext+0xe00028d4>
10000590:	00f72023          	sw	a5,0(a4)
10000594:	f00037b7          	lui	a5,0xf0003
10000598:	00878713          	addi	a4,a5,8 # f0003008 <_etext+0xe00028c0>
1000059c:	fff00793          	li	a5,-1
100005a0:	00f72023          	sw	a5,0(a4)
100005a4:	f0003737          	lui	a4,0xf0003
100005a8:	01870713          	addi	a4,a4,24 # f0003018 <_etext+0xe00028d0>
100005ac:	00f72023          	sw	a5,0(a4)
100005b0:	f00037b7          	lui	a5,0xf0003
100005b4:	00478713          	addi	a4,a5,4 # f0003004 <_etext+0xe00028bc>
100005b8:	00000793          	li	a5,0
100005bc:	00f72023          	sw	a5,0(a4)
100005c0:	f0003737          	lui	a4,0xf0003
100005c4:	01470713          	addi	a4,a4,20 # f0003014 <_etext+0xe00028cc>
100005c8:	00f72023          	sw	a5,0(a4)
100005cc:	f0003737          	lui	a4,0xf0003
100005d0:	00000793          	li	a5,0
100005d4:	00f72023          	sw	a5,0(a4) # f0003000 <_etext+0xe00028b8>
100005d8:	f0003737          	lui	a4,0xf0003
100005dc:	01070713          	addi	a4,a4,16 # f0003010 <_etext+0xe00028c8>
100005e0:	00f72023          	sw	a5,0(a4)
100005e4:	260007b7          	lui	a5,0x26000
100005e8:	00c78793          	addi	a5,a5,12 # 2600000c <_etext+0x15fff8c4>
100005ec:	ab400737          	lui	a4,0xab400
100005f0:	00e7a023          	sw	a4,0(a5)
100005f4:	f00037b7          	lui	a5,0xf0003
100005f8:	03878793          	addi	a5,a5,56 # f0003038 <_etext+0xe00028f0>
100005fc:	0007a023          	sw	zero,0(a5)
10000600:	f00037b7          	lui	a5,0xf0003
10000604:	00878713          	addi	a4,a5,8 # f0003008 <_etext+0xe00028c0>
10000608:	00000793          	li	a5,0
1000060c:	00f72023          	sw	a5,0(a4) # ab400000 <_etext+0x9b3ff8b8>
10000610:	f0003737          	lui	a4,0xf0003
10000614:	01870713          	addi	a4,a4,24 # f0003018 <_etext+0xe00028d0>
10000618:	00f72023          	sw	a5,0(a4)
1000061c:	260007b7          	lui	a5,0x26000
10000620:	00c78793          	addi	a5,a5,12 # 2600000c <_etext+0x15fff8c4>
10000624:	ab410737          	lui	a4,0xab410
10000628:	00e7a023          	sw	a4,0(a5)
1000062c:	260007b7          	lui	a5,0x26000
10000630:	01078793          	addi	a5,a5,16 # 26000010 <_etext+0x15fff8c8>
10000634:	0007a023          	sw	zero,0(a5)
10000638:	260007b7          	lui	a5,0x26000
1000063c:	01078793          	addi	a5,a5,16 # 26000010 <_etext+0x15fff8c8>
10000640:	0f0f1737          	lui	a4,0xf0f1
10000644:	fc070713          	addi	a4,a4,-64 # f0f0fc0 <_fstack+0xf0f09c0>
10000648:	00e7a023          	sw	a4,0(a5)
1000064c:	260007b7          	lui	a5,0x26000
10000650:	01078793          	addi	a5,a5,16 # 26000010 <_etext+0x15fff8c8>
10000654:	0007a023          	sw	zero,0(a5)
10000658:	260007b7          	lui	a5,0x26000
1000065c:	01078793          	addi	a5,a5,16 # 26000010 <_etext+0x15fff8c8>
10000660:	0f0f1737          	lui	a4,0xf0f1
10000664:	fca70713          	addi	a4,a4,-54 # f0f0fca <_fstack+0xf0f09ca>
10000668:	00e7a023          	sw	a4,0(a5)
1000066c:	260007b7          	lui	a5,0x26000
10000670:	01078793          	addi	a5,a5,16 # 26000010 <_etext+0x15fff8c8>
10000674:	00a00713          	li	a4,10
10000678:	00e7a023          	sw	a4,0(a5)
1000067c:	260007b7          	lui	a5,0x26000
10000680:	01078793          	addi	a5,a5,16 # 26000010 <_etext+0x15fff8c8>
10000684:	0f0f1737          	lui	a4,0xf0f1
10000688:	fc070713          	addi	a4,a4,-64 # f0f0fc0 <_fstack+0xf0f09c0>
1000068c:	00e7a023          	sw	a4,0(a5)
10000690:	260007b7          	lui	a5,0x26000
10000694:	01078793          	addi	a5,a5,16 # 26000010 <_etext+0x15fff8c8>
10000698:	0007a023          	sw	zero,0(a5)
1000069c:	260007b7          	lui	a5,0x26000
100006a0:	01078793          	addi	a5,a5,16 # 26000010 <_etext+0x15fff8c8>
100006a4:	0f0f1737          	lui	a4,0xf0f1
100006a8:	fc570713          	addi	a4,a4,-59 # f0f0fc5 <_fstack+0xf0f09c5>
100006ac:	00e7a023          	sw	a4,0(a5)
100006b0:	260007b7          	lui	a5,0x26000
100006b4:	01078793          	addi	a5,a5,16 # 26000010 <_etext+0x15fff8c8>
100006b8:	00500713          	li	a4,5
100006bc:	00e7a023          	sw	a4,0(a5)
100006c0:	260007b7          	lui	a5,0x26000
100006c4:	00c78793          	addi	a5,a5,12 # 2600000c <_etext+0x15fff8c4>
100006c8:	0007a783          	lw	a5,0(a5)
100006cc:	fef42623          	sw	a5,-20(s0)
100006d0:	260007b7          	lui	a5,0x26000
100006d4:	00c78793          	addi	a5,a5,12 # 2600000c <_etext+0x15fff8c4>
100006d8:	fec42703          	lw	a4,-20(s0)
100006dc:	01071713          	slli	a4,a4,0x10
100006e0:	00e7a023          	sw	a4,0(a5)
100006e4:	260007b7          	lui	a5,0x26000
100006e8:	01078793          	addi	a5,a5,16 # 26000010 <_etext+0x15fff8c8>
100006ec:	00a00713          	li	a4,10
100006f0:	00e7a023          	sw	a4,0(a5)
100006f4:	260007b7          	lui	a5,0x26000
100006f8:	00c78793          	addi	a5,a5,12 # 2600000c <_etext+0x15fff8c4>
100006fc:	0007a783          	lw	a5,0(a5)
10000700:	fef42623          	sw	a5,-20(s0)
10000704:	260007b7          	lui	a5,0x26000
10000708:	00c78793          	addi	a5,a5,12 # 2600000c <_etext+0x15fff8c4>
1000070c:	fec42703          	lw	a4,-20(s0)
10000710:	01071713          	slli	a4,a4,0x10
10000714:	00e7a023          	sw	a4,0(a5)
10000718:	260007b7          	lui	a5,0x26000
1000071c:	01078793          	addi	a5,a5,16 # 26000010 <_etext+0x15fff8c8>
10000720:	00500713          	li	a4,5
10000724:	00e7a023          	sw	a4,0(a5)
10000728:	260007b7          	lui	a5,0x26000
1000072c:	00c78793          	addi	a5,a5,12 # 2600000c <_etext+0x15fff8c4>
10000730:	ab510737          	lui	a4,0xab510
10000734:	00e7a023          	sw	a4,0(a5)
10000738:	00000013          	nop
1000073c:	01c12403          	lw	s0,28(sp)
10000740:	02010113          	addi	sp,sp,32
10000744:	00008067          	ret
